target datalayout = "e-m:e-p270:32:32-p271:32:32-p272:64:64-i64:64-i128:128-f80:128-n8:16:32:64-S128"
target triple = "x86_64-pc-linux-gnu"

%struct.H5HG_t = type { i64, i64 }

@.str = private unnamed_addr constant [109 x i8] c"generated/home/dtcxzyw/WorkSpace/Projects/compilers/llvm-opt-benchmark/bench/hdf5/hdf5/src/H5VLnative_blob.c\00", align 1
@__func__.H5VL__native_blob_put = private unnamed_addr constant [22 x i8] c"H5VL__native_blob_put\00", align 1
@H5E_VOL_g = external global i64, align 8
@H5E_WRITEERROR_g = external global i64, align 8
@.str.1 = private unnamed_addr constant [33 x i8] c"unable to write blob information\00", align 1

; Function Attrs: nounwind uwtable
define i32 @H5VL__native_blob_put(ptr noundef %0, ptr noundef %1, i64 noundef %2, ptr noundef %3, ptr noundef %4) #0 {
  %6 = alloca ptr, align 8
  %7 = alloca ptr, align 8
  %8 = alloca i64, align 8
  %9 = alloca ptr, align 8
  %10 = alloca ptr, align 8
  %11 = alloca ptr, align 8
  %12 = alloca ptr, align 8
  %13 = alloca %struct.H5HG_t, align 8
  %14 = alloca i32, align 4
  %15 = alloca i8, align 1
  store ptr %0, ptr %6, align 8, !tbaa !3
  store ptr %1, ptr %7, align 8, !tbaa !3
  store i64 %2, ptr %8, align 8, !tbaa !7
  store ptr %3, ptr %9, align 8, !tbaa !3
  store ptr %4, ptr %10, align 8, !tbaa !3
  call void @llvm.lifetime.start.p0(i64 8, ptr %11) #3
  %16 = load ptr, ptr %6, align 8, !tbaa !3
  store ptr %16, ptr %11, align 8, !tbaa !9
  call void @llvm.lifetime.start.p0(i64 8, ptr %12) #3
  %17 = load ptr, ptr %9, align 8, !tbaa !3
  store ptr %17, ptr %12, align 8, !tbaa !11
  call void @llvm.lifetime.start.p0(i64 16, ptr %13) #3
  call void @llvm.lifetime.start.p0(i64 4, ptr %14) #3
  store i32 0, ptr %14, align 4, !tbaa !13
  call void @llvm.lifetime.start.p0(i64 1, ptr %15) #3
  store i8 0, ptr %15, align 1, !tbaa !15
  %18 = load ptr, ptr %11, align 8, !tbaa !9
  %19 = load i64, ptr %8, align 8, !tbaa !7
  %20 = load ptr, ptr %7, align 8, !tbaa !3
  %21 = call i32 @H5HG_insert(ptr noundef %18, i64 noundef %19, ptr noundef %20, ptr noundef %13)
  %22 = icmp slt i32 %21, 0
  br i1 %22, label %23, label %42

23:                                               ; preds = %5
  br label %24

24:                                               ; preds = %23
  br label %25

25:                                               ; preds = %24
  br label %26

26:                                               ; preds = %25
  %27 = load i64, ptr @H5E_VOL_g, align 8, !tbaa !7
  %28 = load i64, ptr @H5E_WRITEERROR_g, align 8, !tbaa !7
  %29 = call i32 (ptr, ptr, i32, i64, i64, ptr, ...) @H5E_printf_stack(ptr noundef @.str, ptr noundef @__func__.H5VL__native_blob_put, i32 noundef 76, i64 noundef %27, i64 noundef %28, ptr noundef @.str.1)
  br label %30

30:                                               ; preds = %26
  br label %31

31:                                               ; preds = %30
  store i8 1, ptr %15, align 1, !tbaa !15
  %32 = load i8, ptr %15, align 1, !tbaa !15, !range !17, !noundef !18
  %33 = trunc i8 %32 to i1
  %34 = zext i1 %33 to i8
  store i8 %34, ptr %15, align 1, !tbaa !15
  br label %35

35:                                               ; preds = %31
  br label %36

36:                                               ; preds = %35
  br label %37

37:                                               ; preds = %36
  store i32 -1, ptr %14, align 4, !tbaa !13
  br label %80

38:                                               ; No predecessors!
  br label %39

39:                                               ; preds = %38
  br label %40

40:                                               ; preds = %39
  br label %41

41:                                               ; preds = %40
  br label %42

42:                                               ; preds = %41, %5
  %43 = load ptr, ptr %11, align 8, !tbaa !9
  %44 = getelementptr inbounds nuw %struct.H5HG_t, ptr %13, i32 0, i32 0
  %45 = load i64, ptr %44, align 8, !tbaa !19
  call void @H5F_addr_encode(ptr noundef %43, ptr noundef %12, i64 noundef %45)
  br label %46

46:                                               ; preds = %42
  %47 = getelementptr inbounds nuw %struct.H5HG_t, ptr %13, i32 0, i32 1
  %48 = load i64, ptr %47, align 8, !tbaa !21
  %49 = and i64 %48, 255
  %50 = trunc i64 %49 to i8
  %51 = load ptr, ptr %12, align 8, !tbaa !11
  store i8 %50, ptr %51, align 1, !tbaa !22
  %52 = load ptr, ptr %12, align 8, !tbaa !11
  %53 = getelementptr inbounds nuw i8, ptr %52, i32 1
  store ptr %53, ptr %12, align 8, !tbaa !11
  %54 = getelementptr inbounds nuw %struct.H5HG_t, ptr %13, i32 0, i32 1
  %55 = load i64, ptr %54, align 8, !tbaa !21
  %56 = lshr i64 %55, 8
  %57 = and i64 %56, 255
  %58 = trunc i64 %57 to i8
  %59 = load ptr, ptr %12, align 8, !tbaa !11
  store i8 %58, ptr %59, align 1, !tbaa !22
  %60 = load ptr, ptr %12, align 8, !tbaa !11
  %61 = getelementptr inbounds nuw i8, ptr %60, i32 1
  store ptr %61, ptr %12, align 8, !tbaa !11
  %62 = getelementptr inbounds nuw %struct.H5HG_t, ptr %13, i32 0, i32 1
  %63 = load i64, ptr %62, align 8, !tbaa !21
  %64 = lshr i64 %63, 16
  %65 = and i64 %64, 255
  %66 = trunc i64 %65 to i8
  %67 = load ptr, ptr %12, align 8, !tbaa !11
  store i8 %66, ptr %67, align 1, !tbaa !22
  %68 = load ptr, ptr %12, align 8, !tbaa !11
  %69 = getelementptr inbounds nuw i8, ptr %68, i32 1
  store ptr %69, ptr %12, align 8, !tbaa !11
  %70 = getelementptr inbounds nuw %struct.H5HG_t, ptr %13, i32 0, i32 1
  %71 = load i64, ptr %70, align 8, !tbaa !21
  %72 = lshr i64 %71, 24
  %73 = and i64 %72, 255
  %74 = trunc i64 %73 to i8
  %75 = load ptr, ptr %12, align 8, !tbaa !11
  store i8 %74, ptr %75, align 1, !tbaa !22
  %76 = load ptr, ptr %12, align 8, !tbaa !11
  %77 = getelementptr inbounds nuw i8, ptr %76, i32 1
  store ptr %77, ptr %12, align 8, !tbaa !11
  br label %78

78:                                               ; preds = %46
  br label %79

79:                                               ; preds = %78
  br label %80

80:                                               ; preds = %79, %37
  %81 = load i32, ptr %14, align 4, !tbaa !13
  call void @llvm.lifetime.end.p0(i64 1, ptr %15) #3
  call void @llvm.lifetime.end.p0(i64 4, ptr %14) #3
  call void @llvm.lifetime.end.p0(i64 16, ptr %13) #3
  call void @llvm.lifetime.end.p0(i64 8, ptr %12) #3
  call void @llvm.lifetime.end.p0(i64 8, ptr %11) #3
  ret i32 %81
}