; Function Attrs: nounwind uwtable
define range(i32 -1, 1) i32 @H5VL__native_blob_put(ptr noundef %0, ptr noundef %1, i64 noundef %2, ptr noundef %3, ptr noundef readnone captures(none) %4) local_unnamed_addr #0 {
  %6 = alloca ptr, align 8
  %7 = alloca %struct.H5HG_t, align 8
  call void @llvm.lifetime.start.p0(i64 8, ptr nonnull %6) #3
  store ptr %3, ptr %6, align 8, !tbaa !3
  call void @llvm.lifetime.start.p0(i64 16, ptr nonnull %7) #3
  %8 = call i32 @H5HG_insert(ptr noundef %0, i64 noundef %2, ptr noundef %1, ptr noundef nonnull %7) #3
  %9 = icmp slt i32 %8, 0
  br i1 %9, label %10, label %14

10:                                               ; preds = %5
  %11 = load i64, ptr @H5E_VOL_g, align 8, !tbaa !8
  %12 = load i64, ptr @H5E_WRITEERROR_g, align 8, !tbaa !8
  %13 = call i32 (ptr, ptr, i32, i64, i64, ptr, ...) @H5E_printf_stack(ptr noundef nonnull @.str, ptr noundef nonnull @__func__.H5VL__native_blob_put, i32 noundef 76, i64 noundef %11, i64 noundef %12, ptr noundef nonnull @.str.1) #3
  br label %35

14:                                               ; preds = %5
  %15 = load i64, ptr %7, align 8, !tbaa !10
  call void @H5F_addr_encode(ptr noundef %0, ptr noundef nonnull %6, i64 noundef %15) #3
  %16 = getelementptr inbounds nuw i8, ptr %7, i64 8
  %17 = load i64, ptr %16, align 8, !tbaa !12
  %18 = trunc i64 %17 to i8
  %19 = load ptr, ptr %6, align 8, !tbaa !3
  store i8 %18, ptr %19, align 1, !tbaa !13
  %20 = load ptr, ptr %6, align 8, !tbaa !3
  %21 = getelementptr inbounds nuw i8, ptr %20, i64 1
  store ptr %21, ptr %6, align 8, !tbaa !3
  %22 = load i64, ptr %16, align 8, !tbaa !12
  %23 = lshr i64 %22, 8
  %24 = trunc i64 %23 to i8
  store i8 %24, ptr %21, align 1, !tbaa !13
  %25 = load ptr, ptr %6, align 8, !tbaa !3
  %26 = getelementptr inbounds nuw i8, ptr %25, i64 1
  store ptr %26, ptr %6, align 8, !tbaa !3
  %27 = load i64, ptr %16, align 8, !tbaa !12
  %28 = lshr i64 %27, 16
  %29 = trunc i64 %28 to i8
  store i8 %29, ptr %26, align 1, !tbaa !13
  %30 = load ptr, ptr %6, align 8, !tbaa !3
  %31 = getelementptr inbounds nuw i8, ptr %30, i64 1
  %32 = load i64, ptr %16, align 8, !tbaa !12
  %33 = lshr i64 %32, 24
  %34 = trunc i64 %33 to i8
  store i8 %34, ptr %31, align 1, !tbaa !13
  br label %35

35:                                               ; preds = %14, %10
  %.0 = phi i32 [ -1, %10 ], [ 0, %14 ]
  call void @llvm.lifetime.end.p0(i64 16, ptr nonnull %7) #3
  call void @llvm.lifetime.end.p0(i64 8, ptr nonnull %6) #3
  ret i32 %.0
}